; Function Attrs: nounwind uwtable
define internal fastcc i32 @InitiateTransfer(ptr noundef %0) unnamed_addr #0 {
  %2 = alloca i8, align 1
  %3 = getelementptr inbounds nuw i8, ptr %0, i64 24
  %4 = load ptr, ptr %3, align 8, !tbaa !105
  call void @llvm.lifetime.start.p0(i64 1, ptr nonnull %2) #10
  %5 = getelementptr inbounds nuw i8, ptr %0, i64 2658
  %6 = load i64, ptr %5, align 2
  %7 = and i64 %6, 2147483648
  %.not20 = icmp eq i64 %7, 0
  br i1 %.not20, label %19, label %8

8:                                                ; preds = %1
  %9 = getelementptr inbounds nuw i8, ptr %0, i64 4864
  %10 = load ptr, ptr %9, align 8, !tbaa !102
  %.not21 = icmp eq ptr %10, null
  br i1 %.not21, label %17, label %11

11:                                               ; preds = %8
  %12 = getelementptr inbounds nuw i8, ptr %10, i64 8
  %13 = load i32, ptr %12, align 8, !tbaa !103
  %14 = icmp sgt i32 %13, 0
  %15 = load i32, ptr getelementptr inbounds nuw (i8, ptr @Curl_trc_feat_ftp, i64 8), align 8
  %16 = icmp sgt i32 %15, 0
  %or.cond = select i1 %14, i1 %16, i1 false
  br i1 %or.cond, label %18, label %19

17:                                               ; preds = %8
  %.old = load i32, ptr getelementptr inbounds nuw (i8, ptr @Curl_trc_feat_ftp, i64 8), align 8, !tbaa !103
  %.old1 = icmp sgt i32 %.old, 0
  br i1 %.old1, label %18, label %19

18:                                               ; preds = %11, %17
  tail call void (ptr, ptr, ...) @Curl_trc_ftp(ptr noundef nonnull %0, ptr noundef nonnull @.str.147) #10
  br label %19

19:                                               ; preds = %18, %17, %11, %1
  %20 = call i32 @Curl_conn_connect(ptr noundef nonnull %0, i32 noundef 1, i1 noundef zeroext true, ptr noundef nonnull %2) #10
  %.not22 = icmp eq i32 %20, 0
  br i1 %.not22, label %21, label %56

21:                                               ; preds = %19
  %22 = load i8, ptr %2, align 1, !tbaa !106, !range !137, !noundef !138
  %23 = trunc nuw i8 %22 to i1
  br i1 %23, label %24, label %56

24:                                               ; preds = %21
  %25 = getelementptr inbounds nuw i8, ptr %4, i64 1359
  %26 = load i8, ptr %25, align 1, !tbaa !20
  %27 = icmp eq i8 %26, 33
  br i1 %27, label %28, label %31

28:                                               ; preds = %24
  %29 = getelementptr inbounds nuw i8, ptr %0, i64 4536
  %30 = load i64, ptr %29, align 8, !tbaa !151
  call void @Curl_pgrsSetUploadSize(ptr noundef nonnull %0, i64 noundef %30) #10
  call void @Curl_xfer_setup2(ptr noundef nonnull %0, i32 noundef 2, i64 noundef -1, i1 noundef zeroext true, i1 noundef zeroext true) #10
  br label %34

31:                                               ; preds = %24
  %32 = getelementptr inbounds nuw i8, ptr %4, i64 1312
  %33 = load i64, ptr %32, align 8, !tbaa !20
  call void @Curl_xfer_setup2(ptr noundef nonnull %0, i32 noundef 1, i64 noundef %33, i1 noundef zeroext true, i1 noundef zeroext false) #10
  br label %34

34:                                               ; preds = %31, %28
  %35 = getelementptr inbounds nuw i8, ptr %4, i64 1096
  store i8 1, ptr %35, align 8, !tbaa !20
  %36 = load ptr, ptr %3, align 8, !tbaa !105
  %37 = getelementptr inbounds nuw i8, ptr %36, i64 1358
  %38 = load i8, ptr %37, align 2, !tbaa !136
  %.not = icmp eq i8 %38, 0
  br i1 %.not, label %_ftp_state.exit, label %39

39:                                               ; preds = %34
  %40 = load i64, ptr %5, align 2
  %41 = and i64 %40, 2147483648
  %.not.i = icmp eq i64 %41, 0
  br i1 %.not.i, label %_ftp_state.exit, label %42

42:                                               ; preds = %39
  %43 = getelementptr inbounds nuw i8, ptr %0, i64 4864
  %44 = load ptr, ptr %43, align 8, !tbaa !102
  %.not20.i = icmp eq ptr %44, null
  br i1 %.not20.i, label %51, label %45

45:                                               ; preds = %42
  %46 = getelementptr inbounds nuw i8, ptr %44, i64 8
  %47 = load i32, ptr %46, align 8, !tbaa !103
  %48 = icmp sgt i32 %47, 0
  %49 = load i32, ptr getelementptr inbounds nuw (i8, ptr @Curl_trc_feat_ftp, i64 8), align 8
  %50 = icmp sgt i32 %49, 0
  %or.cond.i = select i1 %48, i1 %50, i1 false
  br i1 %or.cond.i, label %52, label %_ftp_state.exit

51:                                               ; preds = %42
  %.old.i = load i32, ptr getelementptr inbounds nuw (i8, ptr @Curl_trc_feat_ftp, i64 8), align 8, !tbaa !103
  %.old1.i = icmp sgt i32 %.old.i, 0
  br i1 %.old1.i, label %52, label %_ftp_state.exit

52:                                               ; preds = %51, %45
  %53 = zext i8 %38 to i64
  %54 = getelementptr inbounds nuw [35 x ptr], ptr @ftp_state_names, i64 0, i64 %53
  %55 = load ptr, ptr %54, align 8, !tbaa !7
  call void (ptr, ptr, ...) @Curl_trc_ftp(ptr noundef nonnull %0, ptr noundef nonnull @.str.7, ptr noundef %55, ptr noundef nonnull @.str.9) #10
  br label %_ftp_state.exit

_ftp_state.exit:                                  ; preds = %34, %39, %45, %51, %52
  store i8 0, ptr %37, align 2, !tbaa !136
  br label %56

56:                                               ; preds = %19, %21, %_ftp_state.exit
  call void @llvm.lifetime.end.p0(i64 1, ptr nonnull %2) #10
  ret i32 %20
}